; ModuleID = '15/352.c'
source_filename = "15/352.c"
target datalayout = "e-m:e-p270:32:32-p271:32:32-p272:64:64-i64:64-f80:128-n8:16:32:64-S128"
target triple = "x86_64-pc-linux-gnu"

@.str = private unnamed_addr constant [3 x i8] c"%d\00", align 1
@.str.1 = private unnamed_addr constant [4 x i8] c"%ld\00", align 1

; Function Attrs: noinline nounwind uwtable
define dso_local i32 @main() #0 {
  %1 = alloca i32, align 4
  %2 = alloca i32, align 4
  %3 = alloca i32, align 4
  %4 = alloca i32, align 4
  %5 = alloca i32, align 4
  %6 = alloca i32, align 4
  %7 = alloca i32, align 4
  %8 = alloca i32, align 4
  %9 = alloca i32, align 4
  %10 = alloca i32, align 4
  store i32 0, i32* %1, align 4
  %11 = call i32 (i8*, ...) @__isoc99_scanf(i8* getelementptr inbounds ([3 x i8], [3 x i8]* @.str, i64 0, i64 0), i32* %2)
  store i32 0, i32* %7, align 4
  store i32 0, i32* %3, align 4
  br label %12

12:                                               ; preds = %45, %0
  %13 = load i32, i32* %3, align 4
  %14 = load i32, i32* %2, align 4
  %15 = icmp slt i32 %13, %14
  br i1 %15, label %16, label %48

16:                                               ; preds = %12
  %17 = call i32 (i8*, ...) @__isoc99_scanf(i8* getelementptr inbounds ([3 x i8], [3 x i8]* @.str, i64 0, i64 0), i32* %5)
  store i32 1, i32* %4, align 4
  br label %18

18:                                               ; preds = %41, %16
  %19 = load i32, i32* %4, align 4
  %20 = load i32, i32* %2, align 4
  %21 = icmp slt i32 %19, %20
  br i1 %21, label %22, label %44

22:                                               ; preds = %18
  %23 = call i32 (i8*, ...) @__isoc99_scanf(i8* getelementptr inbounds ([3 x i8], [3 x i8]* @.str, i64 0, i64 0), i32* %6)
  %24 = load i32, i32* %5, align 4
  %25 = icmp eq i32 %24, 0
  br i1 %25, label %26, label %39

26:                                               ; preds = %22
  %27 = load i32, i32* %6, align 4
  %28 = icmp eq i32 %27, 0
  br i1 %28, label %29, label %39

29:                                               ; preds = %26
  %30 = load i32, i32* %7, align 4
  %31 = icmp eq i32 %30, 0
  br i1 %31, label %32, label %35

32:                                               ; preds = %29
  %33 = load i32, i32* %3, align 4
  store i32 %33, i32* %7, align 4
  %34 = load i32, i32* %4, align 4
  store i32 %34, i32* %8, align 4
  br label %35

35:                                               ; preds = %32, %29
  %36 = load i32, i32* %3, align 4
  store i32 %36, i32* %9, align 4
  %37 = load i32, i32* %4, align 4
  %38 = add nsw i32 %37, 1
  store i32 %38, i32* %10, align 4
  br label %39

39:                                               ; preds = %35, %26, %22
  %40 = load i32, i32* %6, align 4
  store i32 %40, i32* %5, align 4
  br label %41

41:                                               ; preds = %39
  %42 = load i32, i32* %4, align 4
  %43 = add nsw i32 %42, 1
  store i32 %43, i32* %4, align 4
  br label %18

44:                                               ; preds = %18
  br label %45

45:                                               ; preds = %44
  %46 = load i32, i32* %3, align 4
  %47 = add nsw i32 %46, 1
  store i32 %47, i32* %3, align 4
  br label %12

48:                                               ; preds = %12
  %49 = load i32, i32* %10, align 4
  %50 = load i32, i32* %8, align 4
  %51 = sub nsw i32 %49, %50
  %52 = sub nsw i32 %51, 1
  %53 = sext i32 %52 to i64
  %54 = load i32, i32* %9, align 4
  %55 = load i32, i32* %7, align 4
  %56 = sub nsw i32 %54, %55
  %57 = sub nsw i32 %56, 1
  %58 = sext i32 %57 to i64
  %59 = mul nsw i64 %53, %58
  %60 = call i32 (i8*, ...) @printf(i8* getelementptr inbounds ([4 x i8], [4 x i8]* @.str.1, i64 0, i64 0), i64 %59)
  ret i32 0
}

declare dso_local i32 @__isoc99_scanf(i8*, ...) #1

declare dso_local i32 @printf(i8*, ...) #1


!llvm.module.flags = !{!0}
!llvm.ident = !{!1}

!0 = !{i32 1, !"wchar_size", i32 4}
!1 = !{!"clang version 10.0.0-4ubuntu1 "}
